target datalayout = "e-m:e-p270:32:32-p271:32:32-p272:64:64-i64:64-i128:128-f80:128-n8:16:32:64-S128"
target triple = "x86_64-pc-linux-gnu"

; Function Attrs: mustprogress noinline uwtable
define internal void @_ZN4abslL15WriteStackTraceEPvbPFvPKcS0_ES0_(ptr noundef %0, i1 noundef zeroext %1, ptr noundef %2, ptr noundef %3) #12 {
  %5 = alloca ptr, align 8
  %6 = alloca i8, align 1
  %7 = alloca ptr, align 8
  %8 = alloca ptr, align 8
  %9 = alloca i32, align 4
  %10 = alloca [32 x ptr], align 16
  %11 = alloca [32 x i32], align 16
  %12 = alloca i32, align 4
  %13 = alloca i32, align 4
  store ptr %0, ptr %5, align 8, !tbaa !22
  %14 = zext i1 %1 to i8
  store i8 %14, ptr %6, align 1, !tbaa !20
  store ptr %2, ptr %7, align 8, !tbaa !22
  store ptr %3, ptr %8, align 8, !tbaa !22
  call void @llvm.lifetime.start.p0(i64 4, ptr %9) #8
  store i32 32, ptr %9, align 4, !tbaa !4
  call void @llvm.lifetime.start.p0(i64 256, ptr %10) #8
  call void @llvm.lifetime.start.p0(i64 128, ptr %11) #8
  call void @llvm.lifetime.start.p0(i64 4, ptr %12) #8
  call void @llvm.lifetime.start.p0(i64 4, ptr %13) #8
  %15 = getelementptr inbounds [32 x ptr], ptr %10, i64 0, i64 0
  %16 = getelementptr inbounds [32 x i32], ptr %11, i64 0, i64 0
  %17 = load ptr, ptr %5, align 8, !tbaa !22
  %18 = call noundef i32 @_ZN4absl25GetStackFramesWithContextEPPvPiiiPKvS2_(ptr noundef %15, ptr noundef %16, i32 noundef 32, i32 noundef 1, ptr noundef %17, ptr noundef %12)
  store i32 %18, ptr %13, align 4, !tbaa !4
  %19 = load ptr, ptr %5, align 8, !tbaa !22
  %20 = call noundef ptr @_ZN4absl18debugging_internal17GetProgramCounterEPv(ptr noundef %19)
  %21 = getelementptr inbounds [32 x ptr], ptr %10, i64 0, i64 0
  %22 = getelementptr inbounds [32 x i32], ptr %11, i64 0, i64 0
  %23 = load i32, ptr %13, align 4, !tbaa !4
  %24 = load i32, ptr %12, align 4, !tbaa !4
  %25 = load i8, ptr %6, align 1, !tbaa !20, !range !26, !noundef !27
  %26 = trunc i8 %25 to i1
  %27 = load ptr, ptr %7, align 8, !tbaa !22
  %28 = load ptr, ptr %8, align 8, !tbaa !22
  call void @_ZN4absl18debugging_internal32DumpPCAndFrameSizesAndStackTraceEPvPKS1_PiiibPFvPKcS1_ES1_(ptr noundef %20, ptr noundef %21, ptr noundef %22, i32 noundef %23, i32 noundef %24, i1 noundef zeroext %26, ptr noundef %27, ptr noundef %28)
  call void @llvm.lifetime.end.p0(i64 4, ptr %13) #8
  call void @llvm.lifetime.end.p0(i64 4, ptr %12) #8
  call void @llvm.lifetime.end.p0(i64 128, ptr %11) #8
  call void @llvm.lifetime.end.p0(i64 256, ptr %10) #8
  call void @llvm.lifetime.end.p0(i64 4, ptr %9) #8
  ret void
}