; Function Attrs: mustprogress noinline uwtable
define internal fastcc void @_ZN4abslL15WriteStackTraceEPvbPFvPKcS0_ES0_(ptr noundef %0, i1 noundef zeroext %1, ptr noundef nonnull %2) unnamed_addr #10 {
  %4 = alloca [32 x ptr], align 16
  %5 = alloca [32 x i32], align 16
  %6 = alloca i32, align 4
  call void @llvm.lifetime.start.p0(i64 256, ptr nonnull %4) #15
  call void @llvm.lifetime.start.p0(i64 128, ptr nonnull %5) #15
  call void @llvm.lifetime.start.p0(i64 4, ptr nonnull %6) #15
  %7 = call noundef i32 @_ZN4absl25GetStackFramesWithContextEPPvPiiiPKvS2_(ptr noundef nonnull %4, ptr noundef nonnull %5, i32 noundef 32, i32 noundef 1, ptr noundef %0, ptr noundef nonnull %6)
  %8 = call noundef ptr @_ZN4absl18debugging_internal17GetProgramCounterEPv(ptr noundef %0)
  %9 = load i32, ptr %6, align 4, !tbaa !17
  call void @_ZN4absl18debugging_internal32DumpPCAndFrameSizesAndStackTraceEPvPKS1_PiiibPFvPKcS1_ES1_(ptr noundef %8, ptr noundef nonnull %4, ptr noundef nonnull %5, i32 noundef %7, i32 noundef %9, i1 noundef zeroext %1, ptr noundef nonnull @_ZN4abslL15WriterFnWrapperEPKcPv, ptr noundef nonnull %2)
  call void @llvm.lifetime.end.p0(i64 4, ptr nonnull %6) #15
  call void @llvm.lifetime.end.p0(i64 128, ptr nonnull %5) #15
  call void @llvm.lifetime.end.p0(i64 256, ptr nonnull %4) #15
  ret void
}